target datalayout = "e-m:e-p270:32:32-p271:32:32-p272:64:64-i64:64-i128:128-f80:128-n8:16:32:64-S128"
target triple = "x86_64-pc-linux-gnu"

%"class.std::shared_ptr" = type { %"class.std::__shared_ptr" }
%"class.std::__shared_ptr" = type { ptr, %"class.std::__shared_count" }
%"class.std::__shared_count" = type { ptr }
%"class.std::shared_ptr.0" = type { %"class.std::__shared_ptr.1" }
%"class.std::__shared_ptr.1" = type { ptr, %"class.std::__shared_count" }
%"class.std::shared_ptr.3" = type { %"class.std::__shared_ptr.4" }
%"class.std::__shared_ptr.4" = type { ptr, %"class.std::__shared_count" }
%"class.std::shared_ptr.6" = type { %"class.std::__shared_ptr.7" }
%"class.std::__shared_ptr.7" = type { ptr, %"class.std::__shared_count" }
%"class.pxrInternal_v0_24__pxrReserved__::HdSubdivisionTagsSchema::Builder" = type { %"class.std::shared_ptr", %"class.std::shared_ptr", %"class.std::shared_ptr", %"class.std::shared_ptr.3", %"class.std::shared_ptr.6", %"class.std::shared_ptr.3", %"class.std::shared_ptr.3", %"class.std::shared_ptr.6" }

; Function Attrs: mustprogress uwtable
define void @_ZN32pxrInternal_v0_24__pxrReserved__23HdSubdivisionTagsSchema7Builder5BuildEv(ptr dead_on_unwind noalias writable sret(%"class.std::shared_ptr.0") align 8 %0, ptr noundef nonnull align 8 dereferenceable(128) %1) #1 align 2 {
  %3 = alloca ptr, align 8
  %4 = alloca ptr, align 8
  store ptr %0, ptr %3, align 8
  store ptr %1, ptr %4, align 8
  %5 = load ptr, ptr %4, align 8
  %6 = getelementptr inbounds nuw %"class.pxrInternal_v0_24__pxrReserved__::HdSubdivisionTagsSchema::Builder", ptr %5, i32 0, i32 0
  %7 = getelementptr inbounds nuw %"class.pxrInternal_v0_24__pxrReserved__::HdSubdivisionTagsSchema::Builder", ptr %5, i32 0, i32 1
  %8 = getelementptr inbounds nuw %"class.pxrInternal_v0_24__pxrReserved__::HdSubdivisionTagsSchema::Builder", ptr %5, i32 0, i32 2
  %9 = getelementptr inbounds nuw %"class.pxrInternal_v0_24__pxrReserved__::HdSubdivisionTagsSchema::Builder", ptr %5, i32 0, i32 3
  %10 = getelementptr inbounds nuw %"class.pxrInternal_v0_24__pxrReserved__::HdSubdivisionTagsSchema::Builder", ptr %5, i32 0, i32 4
  %11 = getelementptr inbounds nuw %"class.pxrInternal_v0_24__pxrReserved__::HdSubdivisionTagsSchema::Builder", ptr %5, i32 0, i32 5
  %12 = getelementptr inbounds nuw %"class.pxrInternal_v0_24__pxrReserved__::HdSubdivisionTagsSchema::Builder", ptr %5, i32 0, i32 6
  %13 = getelementptr inbounds nuw %"class.pxrInternal_v0_24__pxrReserved__::HdSubdivisionTagsSchema::Builder", ptr %5, i32 0, i32 7
  call void @_ZN32pxrInternal_v0_24__pxrReserved__23HdSubdivisionTagsSchema13BuildRetainedERKSt10shared_ptrINS_24HdTypedSampledDataSourceINS_7TfTokenEEEES7_S7_RKS1_INS2_INS_7VtArrayIiEEEEERKS1_INS2_INS8_IfEEEEESD_SD_SI_(ptr dead_on_unwind writable sret(%"class.std::shared_ptr.0") align 8 %0, ptr noundef nonnull align 8 dereferenceable(16) %6, ptr noundef nonnull align 8 dereferenceable(16) %7, ptr noundef nonnull align 8 dereferenceable(16) %8, ptr noundef nonnull align 8 dereferenceable(16) %9, ptr noundef nonnull align 8 dereferenceable(16) %10, ptr noundef nonnull align 8 dereferenceable(16) %11, ptr noundef nonnull align 8 dereferenceable(16) %12, ptr noundef nonnull align 8 dereferenceable(16) %13)
  ret void
}